target datalayout = "e-m:e-p270:32:32-p271:32:32-p272:64:64-i64:64-i128:128-f80:128-n8:16:32:64-S128"
target triple = "x86_64-pc-linux-gnu"

%class.StackWatermark = type { ptr, i32, i64, ptr, ptr, ptr, %class.Mutex, i32, %class.GrowableArrayCHeap }
%class.Mutex = type { ptr, %class.PlatformMonitor, ptr }
%class.PlatformMonitor = type { %class.PlatformMutex, %union.pthread_cond_t }
%class.PlatformMutex = type { %union.pthread_mutex_t }
%union.pthread_mutex_t = type { %struct.__pthread_mutex_s }
%struct.__pthread_mutex_s = type { i32, i32, i32, i32, i32, i16, i16, %struct.__pthread_internal_list }
%struct.__pthread_internal_list = type { ptr, ptr }
%union.pthread_cond_t = type { %struct.__pthread_cond_s }
%struct.__pthread_cond_s = type { %union.__atomic_wide_counter, %union.__atomic_wide_counter, [2 x i32], [2 x i32], i32, i32, [2 x i32] }
%union.__atomic_wide_counter = type { i64 }
%class.GrowableArrayCHeap = type { %class.GrowableArrayWithAllocator }
%class.GrowableArrayWithAllocator = type { %class.GrowableArrayView }
%class.GrowableArrayView = type { %class.GrowableArrayBase, ptr }
%class.GrowableArrayBase = type { i32, i32 }

; Function Attrs: mustprogress nounwind uwtable
define linkonce_odr hidden noundef ptr @_ZN18GrowableArrayCHeapIP14StackWatermarkL8MEMFLAGS2EE8allocateEiS2_(i32 noundef %0, i8 noundef zeroext %1) #1 comdat align 2 {
  %3 = alloca ptr, align 8
  %4 = alloca i32, align 4
  %5 = alloca i8, align 1
  store i32 %0, ptr %4, align 4
  store i8 %1, ptr %5, align 1
  %6 = load i32, ptr %4, align 4
  %7 = icmp eq i32 %6, 0
  br i1 %7, label %8, label %9

8:                                                ; preds = %2
  store ptr null, ptr %3, align 8
  br label %13

9:                                                ; preds = %2
  %10 = load i32, ptr %4, align 4
  %11 = load i8, ptr %5, align 1
  %12 = call noundef ptr @_ZN27GrowableArrayCHeapAllocator8allocateEii8MEMFLAGS(i32 noundef %10, i32 noundef 8, i8 noundef zeroext %11)
  store ptr %12, ptr %3, align 8
  br label %13

13:                                               ; preds = %9, %8
  %14 = load ptr, ptr %3, align 8
  ret ptr %14
}

; Function Attrs: mustprogress nounwind uwtable
define linkonce_odr hidden void @_ZN17GrowableArrayBaseD2Ev(ptr noundef nonnull align 4 dereferenceable(8) %0) unnamed_addr #1 comdat align 2 {
  %2 = alloca ptr, align 8
  store ptr %0, ptr %2, align 8
  ret void
}

; Function Attrs: mustprogress nounwind uwtable
define linkonce_odr hidden void @_ZN18GrowableArrayCHeapIP14StackWatermarkL8MEMFLAGS2EE10deallocateEPS1_(ptr noundef nonnull align 8 dereferenceable(16) %0, ptr noundef %1) #1 comdat align 2 {
  %3 = alloca ptr, align 8
  %4 = alloca ptr, align 8
  store ptr %0, ptr %3, align 8
  store ptr %1, ptr %4, align 8
  %5 = load ptr, ptr %4, align 8
  call void @_ZN27GrowableArrayCHeapAllocator10deallocateEPv(ptr noundef %5)
  ret void
}

; Function Attrs: mustprogress nounwind uwtable
define linkonce_odr hidden noundef ptr @_ZN18GrowableArrayCHeapIP14StackWatermarkL8MEMFLAGS2EE8allocateEv(ptr noundef nonnull align 8 dereferenceable(16) %0) #1 comdat align 2 {
  %2 = alloca ptr, align 8
  store ptr %0, ptr %2, align 8
  %3 = load ptr, ptr %2, align 8
  %4 = getelementptr inbounds %class.GrowableArrayBase, ptr %3, i32 0, i32 1
  %5 = load i32, ptr %4, align 4
  %6 = call noundef ptr @_ZN18GrowableArrayCHeapIP14StackWatermarkL8MEMFLAGS2EE8allocateEiS2_(i32 noundef %5, i8 noundef zeroext 2)
  ret ptr %6
}

; Function Attrs: mustprogress nounwind uwtable
define linkonce_odr hidden void @_ZN17GrowableArrayViewIP14StackWatermarkED2Ev(ptr noundef nonnull align 8 dereferenceable(16) %0) unnamed_addr #1 comdat align 2 {
  %2 = alloca ptr, align 8
  store ptr %0, ptr %2, align 8
  %3 = load ptr, ptr %2, align 8
  call void @_ZN17GrowableArrayBaseD2Ev(ptr noundef nonnull align 4 dereferenceable(8) %3) #8
  ret void
}

; Function Attrs: mustprogress nounwind uwtable
define linkonce_odr hidden void @_ZN26GrowableArrayWithAllocatorIP14StackWatermark18GrowableArrayCHeapIS1_L8MEMFLAGS2EEE13shrink_to_fitEv(ptr noundef nonnull align 8 dereferenceable(16) %0) #1 comdat align 2 {
  %2 = alloca ptr, align 8
  %3 = alloca i32, align 4
  %4 = alloca i32, align 4
  %5 = alloca ptr, align 8
  %6 = alloca ptr, align 8
  %7 = alloca i32, align 4
  %8 = alloca i32, align 4
  store ptr %0, ptr %2, align 8
  %9 = load ptr, ptr %2, align 8
  %10 = getelementptr inbounds %class.GrowableArrayBase, ptr %9, i32 0, i32 1
  %11 = load i32, ptr %10, align 4
  store i32 %11, ptr %3, align 4
  %12 = getelementptr inbounds %class.GrowableArrayBase, ptr %9, i32 0, i32 0
  %13 = load i32, ptr %12, align 8
  store i32 %13, ptr %4, align 4
  %14 = load i32, ptr %4, align 4
  %15 = load i32, ptr %3, align 4
  %16 = icmp eq i32 %14, %15
  br i1 %16, label %17, label %18

17:                                               ; preds = %1
  br label %62

18:                                               ; preds = %1
  %19 = getelementptr inbounds %class.GrowableArrayView, ptr %9, i32 0, i32 1
  %20 = load ptr, ptr %19, align 8
  store ptr %20, ptr %5, align 8
  store ptr null, ptr %6, align 8
  %21 = load i32, ptr %4, align 4
  %22 = getelementptr inbounds %class.GrowableArrayBase, ptr %9, i32 0, i32 1
  store i32 %21, ptr %22, align 4
  %23 = load i32, ptr %4, align 4
  %24 = icmp sgt i32 %23, 0
  br i1 %24, label %25, label %45

25:                                               ; preds = %18
  %26 = call noundef ptr @_ZN18GrowableArrayCHeapIP14StackWatermarkL8MEMFLAGS2EE8allocateEv(ptr noundef nonnull align 8 dereferenceable(16) %9)
  store ptr %26, ptr %6, align 8
  store i32 0, ptr %7, align 4
  br label %27

27:                                               ; preds = %41, %25
  %28 = load i32, ptr %7, align 4
  %29 = load i32, ptr %4, align 4
  %30 = icmp slt i32 %28, %29
  br i1 %30, label %31, label %44

31:                                               ; preds = %27
  %32 = load ptr, ptr %6, align 8
  %33 = load i32, ptr %7, align 4
  %34 = sext i32 %33 to i64
  %35 = getelementptr inbounds ptr, ptr %32, i64 %34
  %36 = load ptr, ptr %5, align 8
  %37 = load i32, ptr %7, align 4
  %38 = sext i32 %37 to i64
  %39 = getelementptr inbounds ptr, ptr %36, i64 %38
  %40 = load ptr, ptr %39, align 8
  store ptr %40, ptr %35, align 8
  br label %41

41:                                               ; preds = %31
  %42 = load i32, ptr %7, align 4
  %43 = add nsw i32 %42, 1
  store i32 %43, ptr %7, align 4
  br label %27, !llvm.loop !11

44:                                               ; preds = %27
  br label %45

45:                                               ; preds = %44, %18
  store i32 0, ptr %8, align 4
  br label %46

46:                                               ; preds = %51, %45
  %47 = load i32, ptr %8, align 4
  %48 = load i32, ptr %3, align 4
  %49 = icmp slt i32 %47, %48
  br i1 %49, label %50, label %54

50:                                               ; preds = %46
  br label %51

51:                                               ; preds = %50
  %52 = load i32, ptr %8, align 4
  %53 = add nsw i32 %52, 1
  store i32 %53, ptr %8, align 4
  br label %46, !llvm.loop !12

54:                                               ; preds = %46
  %55 = load ptr, ptr %5, align 8
  %56 = icmp ne ptr %55, null
  br i1 %56, label %57, label %59

57:                                               ; preds = %54
  %58 = load ptr, ptr %5, align 8
  call void @_ZN18GrowableArrayCHeapIP14StackWatermarkL8MEMFLAGS2EE10deallocateEPS1_(ptr noundef nonnull align 8 dereferenceable(16) %9, ptr noundef %58)
  br label %59

59:                                               ; preds = %57, %54
  %60 = load ptr, ptr %6, align 8
  %61 = getelementptr inbounds %class.GrowableArrayView, ptr %9, i32 0, i32 1
  store ptr %60, ptr %61, align 8
  br label %62

62:                                               ; preds = %59, %17
  ret void
}

; Function Attrs: mustprogress nounwind uwtable
define linkonce_odr hidden void @_ZN17GrowableArrayBase5clearEv(ptr noundef nonnull align 4 dereferenceable(8) %0) #1 comdat align 2 {
  %2 = alloca ptr, align 8
  store ptr %0, ptr %2, align 8
  %3 = load ptr, ptr %2, align 8
  %4 = getelementptr inbounds %class.GrowableArrayBase, ptr %3, i32 0, i32 0
  store i32 0, ptr %4, align 4
  ret void
}

; Function Attrs: mustprogress nounwind uwtable
define linkonce_odr hidden void @_ZN26GrowableArrayWithAllocatorIP14StackWatermark18GrowableArrayCHeapIS1_L8MEMFLAGS2EEED2Ev(ptr noundef nonnull align 8 dereferenceable(16) %0) unnamed_addr #1 comdat align 2 {
  %2 = alloca ptr, align 8
  store ptr %0, ptr %2, align 8
  %3 = load ptr, ptr %2, align 8
  call void @_ZN17GrowableArrayViewIP14StackWatermarkED2Ev(ptr noundef nonnull align 8 dereferenceable(16) %3) #8
  ret void
}

; Function Attrs: mustprogress nounwind uwtable
define linkonce_odr hidden void @_ZN26GrowableArrayWithAllocatorIP14StackWatermark18GrowableArrayCHeapIS1_L8MEMFLAGS2EEE20clear_and_deallocateEv(ptr noundef nonnull align 8 dereferenceable(16) %0) #1 comdat align 2 {
  %2 = alloca ptr, align 8
  store ptr %0, ptr %2, align 8
  %3 = load ptr, ptr %2, align 8
  call void @_ZN17GrowableArrayBase5clearEv(ptr noundef nonnull align 4 dereferenceable(8) %3)
  call void @_ZN26GrowableArrayWithAllocatorIP14StackWatermark18GrowableArrayCHeapIS1_L8MEMFLAGS2EEE13shrink_to_fitEv(ptr noundef nonnull align 8 dereferenceable(16) %3)
  ret void
}

; Function Attrs: mustprogress nounwind uwtable
define linkonce_odr hidden void @_ZN12CHeapObjBasedlEPv(ptr noundef %0) #1 comdat align 2 {
  %2 = alloca ptr, align 8
  store ptr %0, ptr %2, align 8
  %3 = load ptr, ptr %2, align 8
  call void @_Z8FreeHeapPv(ptr noundef %3)
  ret void
}

; Function Attrs: mustprogress nounwind uwtable
define linkonce_odr hidden void @_ZN18GrowableArrayCHeapIP14StackWatermarkL8MEMFLAGS2EED2Ev(ptr noundef nonnull align 8 dereferenceable(16) %0) unnamed_addr #1 comdat align 2 {
  %2 = alloca ptr, align 8
  store ptr %0, ptr %2, align 8
  %3 = load ptr, ptr %2, align 8
  call void @_ZN26GrowableArrayWithAllocatorIP14StackWatermark18GrowableArrayCHeapIS1_L8MEMFLAGS2EEE20clear_and_deallocateEv(ptr noundef nonnull align 8 dereferenceable(16) %3)
  call void @_ZN26GrowableArrayWithAllocatorIP14StackWatermark18GrowableArrayCHeapIS1_L8MEMFLAGS2EEED2Ev(ptr noundef nonnull align 8 dereferenceable(16) %3) #8
  ret void
}

; Function Attrs: mustprogress nounwind uwtable
define linkonce_odr hidden void @_ZN8CHeapObjIL8MEMFLAGS2EEdlEPv(ptr noundef %0) #1 comdat align 2 {
  %2 = alloca ptr, align 8
  store ptr %0, ptr %2, align 8
  %3 = load ptr, ptr %2, align 8
  call void @_ZN12CHeapObjBasedlEPv(ptr noundef %3) #8
  ret void
}

; Function Attrs: mustprogress nounwind uwtable
define hidden void @_ZN14StackWatermarkD2Ev(ptr noundef nonnull align 8 dereferenceable(176) %0) unnamed_addr #1 align 2 {
  %2 = alloca ptr, align 8
  store ptr %0, ptr %2, align 8
  %3 = load ptr, ptr %2, align 8
  store ptr getelementptr inbounds inrange(-16, 48) ({ [8 x ptr] }, ptr @_ZTV14StackWatermark, i32 0, i32 0, i32 2), ptr %3, align 8
  %4 = getelementptr inbounds %class.StackWatermark, ptr %3, i32 0, i32 5
  %5 = load ptr, ptr %4, align 8
  %6 = icmp eq ptr %5, null
  br i1 %6, label %8, label %7

7:                                                ; preds = %1
  call void @_ZN8CHeapObjIL8MEMFLAGS2EEdlEPv(ptr noundef %5) #8
  br label %8

8:                                                ; preds = %7, %1
  %9 = getelementptr inbounds %class.StackWatermark, ptr %3, i32 0, i32 8
  call void @_ZN18GrowableArrayCHeapIP14StackWatermarkL8MEMFLAGS2EED2Ev(ptr noundef nonnull align 8 dereferenceable(16) %9) #8
  %10 = getelementptr inbounds %class.StackWatermark, ptr %3, i32 0, i32 6
  call void @_ZN5MutexD1Ev(ptr noundef nonnull align 8 dereferenceable(104) %10) #8
  ret void
}