; Function Attrs: mustprogress nounwind uwtable
define hidden void @_ZN14StackWatermarkD2Ev(ptr noundef nonnull align 8 dereferenceable(176) %0) unnamed_addr #2 align 2 {
  store ptr getelementptr inbounds inrange(-16, 48) (i8, ptr @_ZTV14StackWatermark, i64 16), ptr %0, align 8
  %2 = getelementptr inbounds i8, ptr %0, i64 40
  %3 = load ptr, ptr %2, align 8
  %4 = icmp eq ptr %3, null
  br i1 %4, label %6, label %5

5:                                                ; preds = %1
  tail call void @_Z8FreeHeapPv(ptr noundef nonnull %3) #17
  br label %6

6:                                                ; preds = %5, %1
  %7 = getelementptr inbounds i8, ptr %0, i64 160
  store i32 0, ptr %7, align 8
  %8 = getelementptr inbounds i8, ptr %0, i64 164
  %9 = load i32, ptr %8, align 4
  %10 = icmp eq i32 %9, 0
  br i1 %10, label %_ZN18GrowableArrayCHeapIP14StackWatermarkL8MEMFLAGS2EED2Ev.exit, label %.loopexit.i.i.i

.loopexit.i.i.i:                                  ; preds = %6
  %11 = getelementptr inbounds i8, ptr %0, i64 168
  %12 = load ptr, ptr %11, align 8
  store i32 0, ptr %8, align 4
  %.not.i.i.i = icmp eq ptr %12, null
  br i1 %.not.i.i.i, label %13, label %.loopexit.thread.i.i.i

.loopexit.thread.i.i.i:                           ; preds = %.loopexit.i.i.i
  tail call void @_ZN27GrowableArrayCHeapAllocator10deallocateEPv(ptr noundef nonnull %12) #17
  br label %13

13:                                               ; preds = %.loopexit.thread.i.i.i, %.loopexit.i.i.i
  store ptr null, ptr %11, align 8
  br label %_ZN18GrowableArrayCHeapIP14StackWatermarkL8MEMFLAGS2EED2Ev.exit

_ZN18GrowableArrayCHeapIP14StackWatermarkL8MEMFLAGS2EED2Ev.exit: ; preds = %6, %13
  %14 = getelementptr inbounds i8, ptr %0, i64 48
  tail call void @_ZN5MutexD1Ev(ptr noundef nonnull align 8 dereferenceable(104) %14) #17
  ret void
}